; Function Attrs: nounwind uwtable
define void @bufferevent_run_writecb_(ptr noundef %0, i32 noundef %1) local_unnamed_addr #0 {
  %3 = getelementptr inbounds nuw i8, ptr %0, i64 312
  %4 = load ptr, ptr %3, align 8
  %5 = icmp eq ptr %4, null
  br i1 %5, label %bufferevent_incref.exit, label %6

6:                                                ; preds = %2
  %7 = getelementptr inbounds nuw i8, ptr %0, i64 440
  %8 = load i32, ptr %7, align 8
  %9 = or i32 %8, %1
  %10 = and i32 %9, 4
  %.not = icmp eq i32 %10, 0
  br i1 %.not, label %33, label %11

11:                                               ; preds = %6
  %12 = getelementptr inbounds nuw i8, ptr %0, i64 384
  %13 = load i8, ptr %12, align 8
  %14 = or i8 %13, 4
  store i8 %14, ptr %12, align 8
  %15 = load ptr, ptr %0, align 8
  %16 = getelementptr inbounds nuw i8, ptr %0, i64 400
  %17 = tail call i32 @event_deferred_cb_schedule_(ptr noundef %15, ptr noundef nonnull %16) #7
  %.not10 = icmp eq i32 %17, 0
  br i1 %.not10, label %bufferevent_incref.exit, label %18

18:                                               ; preds = %11
  %19 = getelementptr inbounds nuw i8, ptr %0, i64 448
  %20 = load ptr, ptr %19, align 8
  %.not.i = icmp eq ptr %20, null
  br i1 %.not.i, label %.thread.i, label %24

.thread.i:                                        ; preds = %18
  %21 = getelementptr inbounds nuw i8, ptr %0, i64 444
  %22 = load i32, ptr %21, align 4
  %23 = add nsw i32 %22, 1
  store i32 %23, ptr %21, align 4
  br label %bufferevent_incref.exit

24:                                               ; preds = %18
  %25 = load ptr, ptr getelementptr inbounds nuw (i8, ptr @evthread_lock_fns_, i64 24), align 8
  %26 = tail call i32 %25(i32 noundef 0, ptr noundef nonnull %20) #7
  %.pr.i = load ptr, ptr %19, align 8
  %27 = getelementptr inbounds nuw i8, ptr %0, i64 444
  %28 = load i32, ptr %27, align 4
  %29 = add nsw i32 %28, 1
  store i32 %29, ptr %27, align 4
  %.not9.i = icmp eq ptr %.pr.i, null
  br i1 %.not9.i, label %bufferevent_incref.exit, label %30

30:                                               ; preds = %24
  %31 = load ptr, ptr getelementptr inbounds nuw (i8, ptr @evthread_lock_fns_, i64 32), align 8
  %32 = tail call i32 %31(i32 noundef 0, ptr noundef nonnull %.pr.i) #7
  br label %bufferevent_incref.exit

33:                                               ; preds = %6
  %34 = getelementptr inbounds nuw i8, ptr %0, i64 328
  %35 = load ptr, ptr %34, align 8
  tail call void %4(ptr noundef nonnull %0, ptr noundef %35) #7
  br label %bufferevent_incref.exit

bufferevent_incref.exit:                          ; preds = %30, %24, %.thread.i, %33, %11, %2
  ret void
}